target datalayout = "e-m:e-p270:32:32-p271:32:32-p272:64:64-i64:64-i128:128-f80:128-n8:16:32:64-S128"
target triple = "x86_64-pc-linux-gnu"

%struct.mbedtls_ssl_context = type { ptr, i32, i32, i32, i32, i32, ptr, ptr, ptr, ptr, ptr, ptr, ptr, ptr, ptr, ptr, ptr, ptr, ptr, ptr, ptr, ptr, ptr, ptr, ptr, ptr, ptr, ptr, ptr, ptr, ptr, ptr, ptr, i32, i64, i64, i16, i64, i64, i64, i64, i32, i32, i8, i8, i32, i8, ptr, ptr, ptr, ptr, ptr, ptr, ptr, i32, i64, i64, [8 x i8], i16, ptr, ptr, ptr, i64, i32, i64, [12 x i8], [12 x i8], [32 x i8], i8, i8, ptr, ptr, %union.mbedtls_ssl_user_data_t }
%union.mbedtls_ssl_user_data_t = type { i64 }
%struct.mbedtls_ssl_config = type { i32, i32, i8, i8, i8, i8, i8, i8, i8, i8, i8, i8, i16, i8, i8, i8, ptr, i32, ptr, ptr, ptr, ptr, ptr, ptr, ptr, ptr, ptr, ptr, ptr, ptr, ptr, ptr, ptr, ptr, ptr, ptr, ptr, i64, ptr, ptr, ptr, ptr, ptr, ptr, ptr, ptr, %struct.mbedtls_mpi, %struct.mbedtls_mpi, ptr, i64, ptr, i64, ptr, i32, i32, i32, i32, [8 x i8], i32, i32, %union.mbedtls_ssl_user_data_t, ptr, ptr }
%struct.mbedtls_mpi = type { ptr, i16, i16 }

@debug_threshold = internal global i32 0, align 4
@.str.1 = private unnamed_addr constant [25 x i8] c"dumping '%s' (%u bytes)\0A\00", align 1
@.str.2 = private unnamed_addr constant [6 x i8] c"  %s\0A\00", align 1
@.str.3 = private unnamed_addr constant [7 x i8] c"%04x: \00", align 1
@.str.4 = private unnamed_addr constant [6 x i8] c" %02x\00", align 1
@.str.5 = private unnamed_addr constant [4 x i8] c"   \00", align 1

; Function Attrs: inlinehint nounwind uwtable
define internal void @debug_send_line(ptr noundef %0, i32 noundef %1, ptr noundef %2, i32 noundef %3, ptr noundef %4) #4 {
  %6 = alloca ptr, align 8
  %7 = alloca i32, align 4
  %8 = alloca ptr, align 8
  %9 = alloca i32, align 4
  %10 = alloca ptr, align 8
  store ptr %0, ptr %6, align 8, !tbaa !7
  store i32 %1, ptr %7, align 4, !tbaa !3
  store ptr %2, ptr %8, align 8, !tbaa !10
  store i32 %3, ptr %9, align 4, !tbaa !3
  store ptr %4, ptr %10, align 8, !tbaa !10
  %11 = load ptr, ptr %6, align 8, !tbaa !7
  %12 = getelementptr inbounds nuw %struct.mbedtls_ssl_context, ptr %11, i32 0, i32 0
  %13 = load ptr, ptr %12, align 8, !tbaa !12
  %14 = getelementptr inbounds nuw %struct.mbedtls_ssl_config, ptr %13, i32 0, i32 18
  %15 = load ptr, ptr %14, align 8, !tbaa !20
  %16 = load ptr, ptr %6, align 8, !tbaa !7
  %17 = getelementptr inbounds nuw %struct.mbedtls_ssl_context, ptr %16, i32 0, i32 0
  %18 = load ptr, ptr %17, align 8, !tbaa !12
  %19 = getelementptr inbounds nuw %struct.mbedtls_ssl_config, ptr %18, i32 0, i32 19
  %20 = load ptr, ptr %19, align 8, !tbaa !33
  %21 = load i32, ptr %7, align 4, !tbaa !3
  %22 = load ptr, ptr %8, align 8, !tbaa !10
  %23 = load i32, ptr %9, align 4, !tbaa !3
  %24 = load ptr, ptr %10, align 8, !tbaa !10
  call void %15(ptr noundef %20, i32 noundef %21, ptr noundef %22, i32 noundef %23, ptr noundef %24)
  ret void
}

; Function Attrs: nounwind uwtable
define hidden void @mbedtls_debug_print_buf(ptr noundef %0, i32 noundef %1, ptr noundef %2, i32 noundef %3, ptr noundef %4, ptr noundef %5, i64 noundef %6) #0 {
  %8 = alloca ptr, align 8
  %9 = alloca i32, align 4
  %10 = alloca ptr, align 8
  %11 = alloca i32, align 4
  %12 = alloca ptr, align 8
  %13 = alloca ptr, align 8
  %14 = alloca i64, align 8
  %15 = alloca [512 x i8], align 16
  %16 = alloca [17 x i8], align 16
  %17 = alloca i64, align 8
  %18 = alloca i64, align 8
  %19 = alloca i32, align 4
  store ptr %0, ptr %8, align 8, !tbaa !7
  store i32 %1, ptr %9, align 4, !tbaa !3
  store ptr %2, ptr %10, align 8, !tbaa !10
  store i32 %3, ptr %11, align 4, !tbaa !3
  store ptr %4, ptr %12, align 8, !tbaa !10
  store ptr %5, ptr %13, align 8, !tbaa !10
  store i64 %6, ptr %14, align 8, !tbaa !34
  call void @llvm.lifetime.start.p0(i64 512, ptr %15) #8
  call void @llvm.lifetime.start.p0(i64 17, ptr %16) #8
  call void @llvm.lifetime.start.p0(i64 8, ptr %17) #8
  call void @llvm.lifetime.start.p0(i64 8, ptr %18) #8
  store i64 0, ptr %18, align 8, !tbaa !34
  %20 = load ptr, ptr %8, align 8, !tbaa !7
  %21 = icmp eq ptr null, %20
  br i1 %21, label %38, label %22

22:                                               ; preds = %7
  %23 = load ptr, ptr %8, align 8, !tbaa !7
  %24 = getelementptr inbounds nuw %struct.mbedtls_ssl_context, ptr %23, i32 0, i32 0
  %25 = load ptr, ptr %24, align 8, !tbaa !12
  %26 = icmp eq ptr null, %25
  br i1 %26, label %38, label %27

27:                                               ; preds = %22
  %28 = load ptr, ptr %8, align 8, !tbaa !7
  %29 = getelementptr inbounds nuw %struct.mbedtls_ssl_context, ptr %28, i32 0, i32 0
  %30 = load ptr, ptr %29, align 8, !tbaa !12
  %31 = getelementptr inbounds nuw %struct.mbedtls_ssl_config, ptr %30, i32 0, i32 18
  %32 = load ptr, ptr %31, align 8, !tbaa !20
  %33 = icmp eq ptr null, %32
  br i1 %33, label %38, label %34

34:                                               ; preds = %27
  %35 = load i32, ptr %9, align 4, !tbaa !3
  %36 = load i32, ptr @debug_threshold, align 4, !tbaa !3
  %37 = icmp sgt i32 %35, %36
  br i1 %37, label %38, label %39

38:                                               ; preds = %34, %27, %22, %7
  store i32 1, ptr %19, align 4
  br label %175

39:                                               ; preds = %34
  %40 = getelementptr inbounds [512 x i8], ptr %15, i64 0, i64 0
  %41 = load i64, ptr %18, align 8, !tbaa !34
  %42 = getelementptr inbounds nuw i8, ptr %40, i64 %41
  %43 = load i64, ptr %18, align 8, !tbaa !34
  %44 = sub i64 512, %43
  %45 = load ptr, ptr %12, align 8, !tbaa !10
  %46 = load i64, ptr %14, align 8, !tbaa !34
  %47 = trunc i64 %46 to i32
  %48 = call i32 (ptr, i64, ptr, ...) @snprintf(ptr noundef %42, i64 noundef %44, ptr noundef @.str.1, ptr noundef %45, i32 noundef %47) #8
  %49 = load ptr, ptr %8, align 8, !tbaa !7
  %50 = load i32, ptr %9, align 4, !tbaa !3
  %51 = load ptr, ptr %10, align 8, !tbaa !10
  %52 = load i32, ptr %11, align 4, !tbaa !3
  %53 = getelementptr inbounds [512 x i8], ptr %15, i64 0, i64 0
  call void @debug_send_line(ptr noundef %49, i32 noundef %50, ptr noundef %51, i32 noundef %52, ptr noundef %53)
  %54 = getelementptr inbounds [17 x i8], ptr %16, i64 0, i64 0
  call void @llvm.memset.p0.i64(ptr align 16 %54, i8 0, i64 17, i1 false)
  store i64 0, ptr %17, align 8, !tbaa !34
  br label %55

55:                                               ; preds = %137, %39
  %56 = load i64, ptr %17, align 8, !tbaa !34
  %57 = load i64, ptr %14, align 8, !tbaa !34
  %58 = icmp ult i64 %56, %57
  br i1 %58, label %59, label %140

59:                                               ; preds = %55
  %60 = load i64, ptr %17, align 8, !tbaa !34
  %61 = icmp uge i64 %60, 4096
  br i1 %61, label %62, label %63

62:                                               ; preds = %59
  br label %140

63:                                               ; preds = %59
  %64 = load i64, ptr %17, align 8, !tbaa !34
  %65 = urem i64 %64, 16
  %66 = icmp eq i64 %65, 0
  br i1 %66, label %67, label %96

67:                                               ; preds = %63
  %68 = load i64, ptr %17, align 8, !tbaa !34
  %69 = icmp ugt i64 %68, 0
  br i1 %69, label %70, label %84

70:                                               ; preds = %67
  %71 = getelementptr inbounds [512 x i8], ptr %15, i64 0, i64 0
  %72 = load i64, ptr %18, align 8, !tbaa !34
  %73 = getelementptr inbounds nuw i8, ptr %71, i64 %72
  %74 = load i64, ptr %18, align 8, !tbaa !34
  %75 = sub i64 512, %74
  %76 = getelementptr inbounds [17 x i8], ptr %16, i64 0, i64 0
  %77 = call i32 (ptr, i64, ptr, ...) @snprintf(ptr noundef %73, i64 noundef %75, ptr noundef @.str.2, ptr noundef %76) #8
  %78 = load ptr, ptr %8, align 8, !tbaa !7
  %79 = load i32, ptr %9, align 4, !tbaa !3
  %80 = load ptr, ptr %10, align 8, !tbaa !10
  %81 = load i32, ptr %11, align 4, !tbaa !3
  %82 = getelementptr inbounds [512 x i8], ptr %15, i64 0, i64 0
  call void @debug_send_line(ptr noundef %78, i32 noundef %79, ptr noundef %80, i32 noundef %81, ptr noundef %82)
  store i64 0, ptr %18, align 8, !tbaa !34
  %83 = getelementptr inbounds [17 x i8], ptr %16, i64 0, i64 0
  call void @llvm.memset.p0.i64(ptr align 16 %83, i8 0, i64 17, i1 false)
  br label %84

84:                                               ; preds = %70, %67
  %85 = getelementptr inbounds [512 x i8], ptr %15, i64 0, i64 0
  %86 = load i64, ptr %18, align 8, !tbaa !34
  %87 = getelementptr inbounds nuw i8, ptr %85, i64 %86
  %88 = load i64, ptr %18, align 8, !tbaa !34
  %89 = sub i64 512, %88
  %90 = load i64, ptr %17, align 8, !tbaa !34
  %91 = trunc i64 %90 to i32
  %92 = call i32 (ptr, i64, ptr, ...) @snprintf(ptr noundef %87, i64 noundef %89, ptr noundef @.str.3, i32 noundef %91) #8
  %93 = sext i32 %92 to i64
  %94 = load i64, ptr %18, align 8, !tbaa !34
  %95 = add i64 %94, %93
  store i64 %95, ptr %18, align 8, !tbaa !34
  br label %96

96:                                               ; preds = %84, %63
  %97 = getelementptr inbounds [512 x i8], ptr %15, i64 0, i64 0
  %98 = load i64, ptr %18, align 8, !tbaa !34
  %99 = getelementptr inbounds nuw i8, ptr %97, i64 %98
  %100 = load i64, ptr %18, align 8, !tbaa !34
  %101 = sub i64 512, %100
  %102 = load ptr, ptr %13, align 8, !tbaa !10
  %103 = load i64, ptr %17, align 8, !tbaa !34
  %104 = getelementptr inbounds nuw i8, ptr %102, i64 %103
  %105 = load i8, ptr %104, align 1, !tbaa !32
  %106 = zext i8 %105 to i32
  %107 = call i32 (ptr, i64, ptr, ...) @snprintf(ptr noundef %99, i64 noundef %101, ptr noundef @.str.4, i32 noundef %106) #8
  %108 = sext i32 %107 to i64
  %109 = load i64, ptr %18, align 8, !tbaa !34
  %110 = add i64 %109, %108
  store i64 %110, ptr %18, align 8, !tbaa !34
  %111 = load ptr, ptr %13, align 8, !tbaa !10
  %112 = load i64, ptr %17, align 8, !tbaa !34
  %113 = getelementptr inbounds nuw i8, ptr %111, i64 %112
  %114 = load i8, ptr %113, align 1, !tbaa !32
  %115 = zext i8 %114 to i32
  %116 = icmp sgt i32 %115, 31
  br i1 %116, label %117, label %130

117:                                              ; preds = %96
  %118 = load ptr, ptr %13, align 8, !tbaa !10
  %119 = load i64, ptr %17, align 8, !tbaa !34
  %120 = getelementptr inbounds nuw i8, ptr %118, i64 %119
  %121 = load i8, ptr %120, align 1, !tbaa !32
  %122 = zext i8 %121 to i32
  %123 = icmp slt i32 %122, 127
  br i1 %123, label %124, label %130

124:                                              ; preds = %117
  %125 = load ptr, ptr %13, align 8, !tbaa !10
  %126 = load i64, ptr %17, align 8, !tbaa !34
  %127 = getelementptr inbounds nuw i8, ptr %125, i64 %126
  %128 = load i8, ptr %127, align 1, !tbaa !32
  %129 = zext i8 %128 to i32
  br label %131

130:                                              ; preds = %117, %96
  br label %131

131:                                              ; preds = %130, %124
  %132 = phi i32 [ %129, %124 ], [ 46, %130 ]
  %133 = trunc i32 %132 to i8
  %134 = load i64, ptr %17, align 8, !tbaa !34
  %135 = urem i64 %134, 16
  %136 = getelementptr inbounds nuw [17 x i8], ptr %16, i64 0, i64 %135
  store i8 %133, ptr %136, align 1, !tbaa !32
  br label %137

137:                                              ; preds = %131
  %138 = load i64, ptr %17, align 8, !tbaa !34
  %139 = add i64 %138, 1
  store i64 %139, ptr %17, align 8, !tbaa !34
  br label %55, !llvm.loop !35

140:                                              ; preds = %62, %55
  %141 = load i64, ptr %14, align 8, !tbaa !34
  %142 = icmp ugt i64 %141, 0
  br i1 %142, label %143, label %174

143:                                              ; preds = %140
  br label %144

144:                                              ; preds = %158, %143
  %145 = load i64, ptr %17, align 8, !tbaa !34
  %146 = urem i64 %145, 16
  %147 = icmp ne i64 %146, 0
  br i1 %147, label %148, label %161

148:                                              ; preds = %144
  %149 = getelementptr inbounds [512 x i8], ptr %15, i64 0, i64 0
  %150 = load i64, ptr %18, align 8, !tbaa !34
  %151 = getelementptr inbounds nuw i8, ptr %149, i64 %150
  %152 = load i64, ptr %18, align 8, !tbaa !34
  %153 = sub i64 512, %152
  %154 = call i32 (ptr, i64, ptr, ...) @snprintf(ptr noundef %151, i64 noundef %153, ptr noundef @.str.5) #8
  %155 = sext i32 %154 to i64
  %156 = load i64, ptr %18, align 8, !tbaa !34
  %157 = add i64 %156, %155
  store i64 %157, ptr %18, align 8, !tbaa !34
  br label %158

158:                                              ; preds = %148
  %159 = load i64, ptr %17, align 8, !tbaa !34
  %160 = add i64 %159, 1
  store i64 %160, ptr %17, align 8, !tbaa !34
  br label %144, !llvm.loop !37

161:                                              ; preds = %144
  %162 = getelementptr inbounds [512 x i8], ptr %15, i64 0, i64 0
  %163 = load i64, ptr %18, align 8, !tbaa !34
  %164 = getelementptr inbounds nuw i8, ptr %162, i64 %163
  %165 = load i64, ptr %18, align 8, !tbaa !34
  %166 = sub i64 512, %165
  %167 = getelementptr inbounds [17 x i8], ptr %16, i64 0, i64 0
  %168 = call i32 (ptr, i64, ptr, ...) @snprintf(ptr noundef %164, i64 noundef %166, ptr noundef @.str.2, ptr noundef %167) #8
  %169 = load ptr, ptr %8, align 8, !tbaa !7
  %170 = load i32, ptr %9, align 4, !tbaa !3
  %171 = load ptr, ptr %10, align 8, !tbaa !10
  %172 = load i32, ptr %11, align 4, !tbaa !3
  %173 = getelementptr inbounds [512 x i8], ptr %15, i64 0, i64 0
  call void @debug_send_line(ptr noundef %169, i32 noundef %170, ptr noundef %171, i32 noundef %172, ptr noundef %173)
  br label %174

174:                                              ; preds = %161, %140
  store i32 0, ptr %19, align 4
  br label %175

175:                                              ; preds = %174, %38
  call void @llvm.lifetime.end.p0(i64 8, ptr %18) #8
  call void @llvm.lifetime.end.p0(i64 8, ptr %17) #8
  call void @llvm.lifetime.end.p0(i64 17, ptr %16) #8
  call void @llvm.lifetime.end.p0(i64 512, ptr %15) #8
  %176 = load i32, ptr %19, align 4
  switch i32 %176, label %178 [
    i32 0, label %177
    i32 1, label %177
  ]

177:                                              ; preds = %175, %175
  ret void

178:                                              ; preds = %175
  unreachable
}