; Function Attrs: nounwind uwtable
define hidden void @mbedtls_debug_print_buf(ptr noundef readonly %0, i32 noundef %1, ptr noundef %2, i32 noundef %3, ptr noundef %4, ptr noundef readonly captures(none) %5, i64 noundef %6) local_unnamed_addr #1 {
  %8 = alloca [512 x i8], align 16
  %9 = alloca [17 x i8], align 16
  call void @llvm.lifetime.start.p0(i64 512, ptr nonnull %8) #9
  call void @llvm.lifetime.start.p0(i64 17, ptr nonnull %9) #9
  %10 = icmp eq ptr %0, null
  br i1 %10, label %._crit_edge.thread, label %11

11:                                               ; preds = %7
  %12 = load ptr, ptr %0, align 8, !tbaa !7
  %13 = icmp eq ptr %12, null
  br i1 %13, label %._crit_edge.thread, label %14

14:                                               ; preds = %11
  %15 = getelementptr inbounds nuw i8, ptr %12, i64 40
  %16 = load ptr, ptr %15, align 8, !tbaa !17
  %17 = icmp eq ptr %16, null
  %18 = load i32, ptr @debug_threshold, align 4
  %19 = icmp sgt i32 %1, %18
  %or.cond61 = select i1 %17, i1 true, i1 %19
  br i1 %or.cond61, label %._crit_edge.thread, label %20

20:                                               ; preds = %14
  %21 = trunc i64 %6 to i32
  %22 = call i32 (ptr, i64, ptr, ...) @snprintf(ptr noundef nonnull dereferenceable(1) %8, i64 noundef 512, ptr noundef nonnull @.str.1, ptr noundef %4, i32 noundef %21) #9
  %.val64 = load ptr, ptr %0, align 8, !tbaa !7
  %23 = getelementptr i8, ptr %.val64, i64 40
  %.val64.val = load ptr, ptr %23, align 8, !tbaa !17
  %24 = getelementptr i8, ptr %.val64, i64 48
  %.val64.val65 = load ptr, ptr %24, align 8, !tbaa !30
  call void %.val64.val(ptr noundef %.val64.val65, i32 noundef %1, ptr noundef %2, i32 noundef %3, ptr noundef nonnull %8) #9
  call void @llvm.memset.p0.i64(ptr noundef nonnull align 16 dereferenceable(17) %9, i8 0, i64 17, i1 false)
  %25 = icmp eq i64 %6, 0
  br i1 %25, label %._crit_edge.thread, label %.lr.ph.preheader

.lr.ph.preheader:                                 ; preds = %20
  %26 = add i64 %6, -1
  %umin = call i64 @llvm.umin.i64(i64 %26, i64 4095)
  %27 = add nuw nsw i64 %umin, 1
  br label %.lr.ph

.lr.ph:                                           ; preds = %.lr.ph.preheader, %44
  %.069 = phi i64 [ %52, %44 ], [ 0, %.lr.ph.preheader ]
  %.05268 = phi i64 [ %57, %44 ], [ 0, %.lr.ph.preheader ]
  %28 = and i64 %.05268, 15
  %29 = icmp eq i64 %28, 0
  br i1 %29, label %30, label %44

30:                                               ; preds = %.lr.ph
  %.not = icmp eq i64 %.05268, 0
  br i1 %.not, label %37, label %31

31:                                               ; preds = %30
  %32 = getelementptr inbounds nuw i8, ptr %8, i64 %.069
  %33 = sub i64 512, %.069
  %34 = call i32 (ptr, i64, ptr, ...) @snprintf(ptr noundef nonnull %32, i64 noundef %33, ptr noundef nonnull @.str.2, ptr noundef nonnull %9) #9
  %.val63 = load ptr, ptr %0, align 8, !tbaa !7
  %35 = getelementptr i8, ptr %.val63, i64 40
  %.val63.val = load ptr, ptr %35, align 8, !tbaa !17
  %36 = getelementptr i8, ptr %.val63, i64 48
  %.val63.val66 = load ptr, ptr %36, align 8, !tbaa !30
  call void %.val63.val(ptr noundef %.val63.val66, i32 noundef %1, ptr noundef %2, i32 noundef %3, ptr noundef nonnull %8) #9
  call void @llvm.memset.p0.i64(ptr noundef nonnull align 16 dereferenceable(17) %9, i8 0, i64 17, i1 false)
  br label %37

37:                                               ; preds = %31, %30
  %.2 = phi i64 [ 0, %31 ], [ %.069, %30 ]
  %38 = getelementptr inbounds nuw i8, ptr %8, i64 %.2
  %39 = sub i64 512, %.2
  %40 = trunc nuw nsw i64 %.05268 to i32
  %41 = call i32 (ptr, i64, ptr, ...) @snprintf(ptr noundef nonnull %38, i64 noundef %39, ptr noundef nonnull @.str.3, i32 noundef %40) #9
  %42 = sext i32 %41 to i64
  %43 = add i64 %.2, %42
  br label %44

44:                                               ; preds = %37, %.lr.ph
  %.1 = phi i64 [ %43, %37 ], [ %.069, %.lr.ph ]
  %45 = getelementptr inbounds nuw i8, ptr %8, i64 %.1
  %46 = sub i64 512, %.1
  %47 = getelementptr inbounds nuw i8, ptr %5, i64 %.05268
  %48 = load i8, ptr %47, align 1, !tbaa !29
  %49 = zext i8 %48 to i32
  %50 = call i32 (ptr, i64, ptr, ...) @snprintf(ptr noundef nonnull %45, i64 noundef %46, ptr noundef nonnull @.str.4, i32 noundef %49) #9
  %51 = sext i32 %50 to i64
  %52 = add i64 %.1, %51
  %53 = load i8, ptr %47, align 1, !tbaa !29
  %54 = add i8 %53, -32
  %or.cond62 = icmp ult i8 %54, 95
  %55 = select i1 %or.cond62, i8 %53, i8 46
  %56 = getelementptr inbounds nuw [17 x i8], ptr %9, i64 0, i64 %28
  store i8 %55, ptr %56, align 1, !tbaa !29
  %57 = add nuw nsw i64 %.05268, 1
  %exitcond = icmp eq i64 %.05268, %umin
  br i1 %exitcond, label %.preheader, label %.lr.ph, !llvm.loop !31

.preheader:                                       ; preds = %44
  %58 = and i64 %27, 15
  %.not5971 = icmp eq i64 %58, 0
  br i1 %.not5971, label %._crit_edge75, label %.lr.ph74

.lr.ph74:                                         ; preds = %.preheader, %.lr.ph74
  %.373 = phi i64 [ %63, %.lr.ph74 ], [ %52, %.preheader ]
  %.15372 = phi i64 [ %64, %.lr.ph74 ], [ %27, %.preheader ]
  %59 = getelementptr inbounds nuw i8, ptr %8, i64 %.373
  %60 = sub i64 512, %.373
  %61 = call i32 (ptr, i64, ptr, ...) @snprintf(ptr noundef nonnull %59, i64 noundef %60, ptr noundef nonnull @.str.5) #9
  %62 = sext i32 %61 to i64
  %63 = add i64 %.373, %62
  %64 = add nuw nsw i64 %.15372, 1
  %65 = and i64 %64, 15
  %exitcond79 = icmp eq i64 %65, 0
  br i1 %exitcond79, label %._crit_edge75, label %.lr.ph74, !llvm.loop !33

._crit_edge75:                                    ; preds = %.lr.ph74, %.preheader
  %.3.lcssa = phi i64 [ %52, %.preheader ], [ %63, %.lr.ph74 ]
  %66 = getelementptr inbounds nuw i8, ptr %8, i64 %.3.lcssa
  %67 = sub i64 512, %.3.lcssa
  %68 = call i32 (ptr, i64, ptr, ...) @snprintf(ptr noundef nonnull %66, i64 noundef %67, ptr noundef nonnull @.str.2, ptr noundef nonnull %9) #9
  %.val = load ptr, ptr %0, align 8, !tbaa !7
  %69 = getelementptr i8, ptr %.val, i64 40
  %.val.val = load ptr, ptr %69, align 8, !tbaa !17
  %70 = getelementptr i8, ptr %.val, i64 48
  %.val.val67 = load ptr, ptr %70, align 8, !tbaa !30
  call void %.val.val(ptr noundef %.val.val67, i32 noundef %1, ptr noundef %2, i32 noundef %3, ptr noundef nonnull %8) #9
  br label %._crit_edge.thread

._crit_edge.thread:                               ; preds = %20, %._crit_edge75, %7, %11, %14
  call void @llvm.lifetime.end.p0(i64 17, ptr nonnull %9) #9
  call void @llvm.lifetime.end.p0(i64 512, ptr nonnull %8) #9
  ret void
}